target datalayout = "e-m:e-p270:32:32-p271:32:32-p272:64:64-i64:64-i128:128-f80:128-n8:16:32:64-S128"
target triple = "x86_64-pc-linux-gnu"

%"class.open3d::core::nns::NearestNeighborSearch" = type { %"class.std::unique_ptr", %"class.std::unique_ptr.2", %"class.std::unique_ptr.10", %"class.open3d::core::Tensor", %"class.open3d::core::Dtype" }
%"class.std::unique_ptr" = type { %"struct.std::__uniq_ptr_data" }
%"struct.std::__uniq_ptr_data" = type { %"class.std::__uniq_ptr_impl" }
%"class.std::__uniq_ptr_impl" = type { %"class.std::tuple" }
%"class.std::tuple" = type { %"struct.std::_Tuple_impl" }
%"struct.std::_Tuple_impl" = type { %"struct.std::_Head_base.1" }
%"struct.std::_Head_base.1" = type { ptr }
%"class.std::unique_ptr.2" = type { %"struct.std::__uniq_ptr_data.3" }
%"struct.std::__uniq_ptr_data.3" = type { %"class.std::__uniq_ptr_impl.4" }
%"class.std::__uniq_ptr_impl.4" = type { %"class.std::tuple.5" }
%"class.std::tuple.5" = type { %"struct.std::_Tuple_impl.6" }
%"struct.std::_Tuple_impl.6" = type { %"struct.std::_Head_base.9" }
%"struct.std::_Head_base.9" = type { ptr }
%"class.std::unique_ptr.10" = type { %"struct.std::__uniq_ptr_data.11" }
%"struct.std::__uniq_ptr_data.11" = type { %"class.std::__uniq_ptr_impl.12" }
%"class.std::__uniq_ptr_impl.12" = type { %"class.std::tuple.13" }
%"class.std::tuple.13" = type { %"struct.std::_Tuple_impl.14" }
%"struct.std::_Tuple_impl.14" = type { %"struct.std::_Head_base.17" }
%"struct.std::_Head_base.17" = type { ptr }
%"class.open3d::core::Tensor" = type { %"class.open3d::core::IsDevice", %"class.open3d::core::SizeVector", %"class.open3d::core::SizeVector", ptr, %"class.open3d::core::Dtype", %"class.std::shared_ptr" }
%"class.open3d::core::IsDevice" = type { ptr }
%"class.open3d::core::SizeVector" = type { %"class.open3d::core::SmallVector" }
%"class.open3d::core::SmallVector" = type { %"class.open3d::core::SmallVectorImpl", %"struct.open3d::core::SmallVectorStorage" }
%"class.open3d::core::SmallVectorImpl" = type { %"class.open3d::core::SmallVectorTemplateBase" }
%"class.open3d::core::SmallVectorTemplateBase" = type { %"class.open3d::core::SmallVectorTemplateCommon" }
%"class.open3d::core::SmallVectorTemplateCommon" = type { %"class.open3d::core::SmallVectorBase" }
%"class.open3d::core::SmallVectorBase" = type { ptr, i32, i32 }
%"struct.open3d::core::SmallVectorStorage" = type { [32 x i8] }
%"class.std::shared_ptr" = type { %"class.std::__shared_ptr" }
%"class.std::__shared_ptr" = type { ptr, %"class.std::__shared_count" }
%"class.std::__shared_count" = type { ptr }
%"class.open3d::core::Dtype" = type { i32, i64, [16 x i8] }
%"class.open3d::core::Device" = type { i32, i32 }
%"class.std::tuple.38" = type { %"struct.std::_Tuple_impl.39" }
%"struct.std::_Tuple_impl.39" = type { %"struct.std::_Tuple_impl.40", %"struct.std::_Head_base.44" }
%"struct.std::_Tuple_impl.40" = type { %"struct.std::_Tuple_impl.41", %"struct.std::_Head_base.43" }
%"struct.std::_Tuple_impl.41" = type { %"struct.std::_Head_base.42" }
%"struct.std::_Head_base.42" = type { %"class.open3d::core::Tensor" }
%"struct.std::_Head_base.43" = type { %"class.open3d::core::Tensor" }
%"struct.std::_Head_base.44" = type { %"class.open3d::core::Tensor" }

@.str = private unnamed_addr constant [137 x i8] c"generated/home/dtcxzyw/WorkSpace/Projects/compilers/llvm-opt-benchmark/bench/open3d/Open3D/cpp/open3d/core/nns/NearestNeighborSearch.cpp\00", align 1
@.str.6 = private unnamed_addr constant [18 x i8] c"Index is not set.\00", align 1
@__PRETTY_FUNCTION__._ZN6open3d4core3nns21NearestNeighborSearch17MultiRadiusSearchERKNS0_6TensorES5_ = private unnamed_addr constant [127 x i8] c"std::tuple<Tensor, Tensor, Tensor> open3d::core::nns::NearestNeighborSearch::MultiRadiusSearch(const Tensor &, const Tensor &)\00", align 1
@__PRETTY_FUNCTION__._ZNK6open3d4core3nns21NearestNeighborSearch13AssertNotCUDAERKNS0_6TensorE = private unnamed_addr constant [83 x i8] c"void open3d::core::nns::NearestNeighborSearch::AssertNotCUDA(const Tensor &) const\00", align 1
@.str.7 = private unnamed_addr constant [62 x i8] c"TODO: NearestNeighborSearch does not support CUDA tensor yet.\00", align 1

; Function Attrs: mustprogress nounwind ssp uwtable
define linkonce_odr noundef nonnull align 8 dereferenceable(8) ptr @_ZNSt10_Head_baseILm0EPN6open3d4core3nns14NanoFlannIndexELb0EE7_M_headERKS5_(ptr noundef nonnull align 8 dereferenceable(8) %0) #0 comdat align 2 {
  %2 = alloca ptr, align 8
  store ptr %0, ptr %2, align 8, !tbaa !105
  %3 = load ptr, ptr %2, align 8, !tbaa !105
  %4 = getelementptr inbounds nuw %"struct.std::_Head_base.1", ptr %3, i32 0, i32 0
  ret ptr %4
}

; Function Attrs: mustprogress nounwind ssp uwtable
define linkonce_odr noundef nonnull align 8 dereferenceable(8) ptr @_ZNSt11_Tuple_implILm0EJPN6open3d4core3nns14NanoFlannIndexESt14default_deleteIS3_EEE7_M_headERKS7_(ptr noundef nonnull align 8 dereferenceable(8) %0) #0 comdat align 2 {
  %2 = alloca ptr, align 8
  store ptr %0, ptr %2, align 8, !tbaa !103
  %3 = load ptr, ptr %2, align 8, !tbaa !103
  %4 = call noundef nonnull align 8 dereferenceable(8) ptr @_ZNSt10_Head_baseILm0EPN6open3d4core3nns14NanoFlannIndexELb0EE7_M_headERKS5_(ptr noundef nonnull align 8 dereferenceable(8) %3) #18
  ret ptr %4
}

; Function Attrs: mustprogress nounwind ssp uwtable
define linkonce_odr noundef nonnull align 8 dereferenceable(8) ptr @_ZSt12__get_helperILm0EPN6open3d4core3nns14NanoFlannIndexEJSt14default_deleteIS3_EEERKT0_RKSt11_Tuple_implIXT_EJS7_DpT1_EE(ptr noundef nonnull align 8 dereferenceable(8) %0) #0 comdat {
  %2 = alloca ptr, align 8
  store ptr %0, ptr %2, align 8, !tbaa !103
  %3 = load ptr, ptr %2, align 8, !tbaa !103
  %4 = call noundef nonnull align 8 dereferenceable(8) ptr @_ZNSt11_Tuple_implILm0EJPN6open3d4core3nns14NanoFlannIndexESt14default_deleteIS3_EEE7_M_headERKS7_(ptr noundef nonnull align 8 dereferenceable(8) %3) #18
  ret ptr %4
}

; Function Attrs: mustprogress nounwind ssp uwtable
define linkonce_odr noundef nonnull align 8 dereferenceable(8) ptr @_ZSt3getILm0EJPN6open3d4core3nns14NanoFlannIndexESt14default_deleteIS3_EEERKNSt13tuple_elementIXT_ESt5tupleIJDpT0_EEE4typeERKSB_(ptr noundef nonnull align 8 dereferenceable(8) %0) #0 comdat {
  %2 = alloca ptr, align 8
  store ptr %0, ptr %2, align 8, !tbaa !101
  %3 = load ptr, ptr %2, align 8, !tbaa !101
  %4 = call noundef nonnull align 8 dereferenceable(8) ptr @_ZSt12__get_helperILm0EPN6open3d4core3nns14NanoFlannIndexEJSt14default_deleteIS3_EEERKT0_RKSt11_Tuple_implIXT_EJS7_DpT1_EE(ptr noundef nonnull align 8 dereferenceable(8) %3) #18
  ret ptr %4
}

; Function Attrs: mustprogress nounwind ssp uwtable
define linkonce_odr noundef ptr @_ZNKSt15__uniq_ptr_implIN6open3d4core3nns14NanoFlannIndexESt14default_deleteIS3_EE6_M_ptrEv(ptr noundef nonnull align 8 dereferenceable(8) %0) #0 comdat align 2 {
  %2 = alloca ptr, align 8
  store ptr %0, ptr %2, align 8, !tbaa !97
  %3 = load ptr, ptr %2, align 8
  %4 = getelementptr inbounds nuw %"class.std::__uniq_ptr_impl", ptr %3, i32 0, i32 0
  %5 = call noundef nonnull align 8 dereferenceable(8) ptr @_ZSt3getILm0EJPN6open3d4core3nns14NanoFlannIndexESt14default_deleteIS3_EEERKNSt13tuple_elementIXT_ESt5tupleIJDpT0_EEE4typeERKSB_(ptr noundef nonnull align 8 dereferenceable(8) %4) #18
  %6 = load ptr, ptr %5, align 8, !tbaa !30
  ret ptr %6
}

; Function Attrs: inlinehint mustprogress nounwind ssp uwtable
define linkonce_odr noundef i32 @_ZNK6open3d4core6Device7GetTypeEv(ptr noundef nonnull align 4 dereferenceable(8) %0) #1 comdat align 2 {
  %2 = alloca ptr, align 8
  store ptr %0, ptr %2, align 8, !tbaa !113
  %3 = load ptr, ptr %2, align 8
  %4 = getelementptr inbounds nuw %"class.open3d::core::Device", ptr %3, i32 0, i32 0
  %5 = load i32, ptr %4, align 4, !tbaa !115
  ret i32 %5
}

; Function Attrs: mustprogress nounwind ssp uwtable
define linkonce_odr noundef ptr @_ZNKSt10unique_ptrIN6open3d4core3nns14NanoFlannIndexESt14default_deleteIS3_EE3getEv(ptr noundef nonnull align 8 dereferenceable(8) %0) #0 comdat align 2 {
  %2 = alloca ptr, align 8
  store ptr %0, ptr %2, align 8, !tbaa !26
  %3 = load ptr, ptr %2, align 8
  %4 = getelementptr inbounds nuw %"class.std::unique_ptr", ptr %3, i32 0, i32 0
  %5 = call noundef ptr @_ZNKSt15__uniq_ptr_implIN6open3d4core3nns14NanoFlannIndexESt14default_deleteIS3_EE6_M_ptrEv(ptr noundef nonnull align 8 dereferenceable(8) %4) #18
  ret ptr %5
}

; Function Attrs: inlinehint mustprogress ssp uwtable
define linkonce_odr noundef zeroext i1 @_ZNK6open3d4core8IsDevice6IsCUDAEv(ptr noundef nonnull align 8 dereferenceable(8) %0) #13 comdat align 2 {
  %2 = alloca ptr, align 8
  %3 = alloca %"class.open3d::core::Device", align 4
  store ptr %0, ptr %2, align 8, !tbaa !36
  %4 = load ptr, ptr %2, align 8
  call void @llvm.lifetime.start.p0(i64 8, ptr %3) #18
  %5 = load ptr, ptr %4, align 8, !tbaa !11
  %6 = getelementptr inbounds ptr, ptr %5, i64 2
  %7 = load ptr, ptr %6, align 8
  %8 = call i64 %7(ptr noundef nonnull align 8 dereferenceable(8) %4)
  store i64 %8, ptr %3, align 4
  %9 = call noundef i32 @_ZNK6open3d4core6Device7GetTypeEv(ptr noundef nonnull align 4 dereferenceable(8) %3)
  %10 = icmp eq i32 %9, 1
  call void @llvm.lifetime.end.p0(i64 8, ptr %3) #18
  ret i1 %10
}

; Function Attrs: mustprogress nounwind ssp uwtable
define linkonce_odr noundef ptr @_ZNKSt10unique_ptrIN6open3d4core3nns14NanoFlannIndexESt14default_deleteIS3_EEptEv(ptr noundef nonnull align 8 dereferenceable(8) %0) #0 comdat align 2 {
  %2 = alloca ptr, align 8
  store ptr %0, ptr %2, align 8, !tbaa !26
  %3 = load ptr, ptr %2, align 8
  %4 = call noundef ptr @_ZNKSt10unique_ptrIN6open3d4core3nns14NanoFlannIndexESt14default_deleteIS3_EE3getEv(ptr noundef nonnull align 8 dereferenceable(8) %3) #18
  ret ptr %4
}

; Function Attrs: mustprogress nounwind ssp uwtable
define linkonce_odr noundef zeroext i1 @_ZNKSt10unique_ptrIN6open3d4core3nns14NanoFlannIndexESt14default_deleteIS3_EEcvbEv(ptr noundef nonnull align 8 dereferenceable(8) %0) #0 comdat align 2 {
  %2 = alloca ptr, align 8
  store ptr %0, ptr %2, align 8, !tbaa !26
  %3 = load ptr, ptr %2, align 8
  %4 = call noundef ptr @_ZNKSt10unique_ptrIN6open3d4core3nns14NanoFlannIndexESt14default_deleteIS3_EE3getEv(ptr noundef nonnull align 8 dereferenceable(8) %3) #18
  %5 = icmp eq ptr %4, null
  %6 = select i1 %5, i1 false, i1 true
  ret i1 %6
}

; Function Attrs: inlinehint mustprogress nounwind ssp uwtable
define linkonce_odr void @_ZNK6open3d4core6Tensor8GetDtypeEv(ptr dead_on_unwind noalias writable sret(%"class.open3d::core::Dtype") align 8 %0, ptr noundef nonnull align 8 dereferenceable(160) %1) #1 comdat align 2 {
  %3 = alloca ptr, align 8
  store ptr %1, ptr %3, align 8, !tbaa !9
  %4 = load ptr, ptr %3, align 8
  %5 = getelementptr inbounds nuw %"class.open3d::core::Tensor", ptr %4, i32 0, i32 4
  call void @llvm.memcpy.p0.p0.i64(ptr align 8 %0, ptr align 8 %5, i64 32, i1 false), !tbaa.struct !147
  ret void
}

; Function Attrs: mustprogress ssp uwtable
define void @_ZNK6open3d4core3nns21NearestNeighborSearch13AssertNotCUDAERKNS0_6TensorE(ptr noundef nonnull align 8 dereferenceable(216) %0, ptr noundef nonnull align 8 dereferenceable(160) %1) #8 align 2 {
  %3 = alloca ptr, align 8
  %4 = alloca ptr, align 8
  store ptr %0, ptr %3, align 8, !tbaa !4
  store ptr %1, ptr %4, align 8, !tbaa !9
  %5 = load ptr, ptr %4, align 8, !tbaa !9
  %6 = call noundef zeroext i1 @_ZNK6open3d4core8IsDevice6IsCUDAEv(ptr noundef nonnull align 8 dereferenceable(8) %5)
  br i1 %6, label %7, label %8

7:                                                ; preds = %2
  call void @_ZN6open3d7utility6Logger9LogError_IJEEEvPKciS4_S4_DpOT_(ptr noundef @.str, i32 noundef 157, ptr noundef @__PRETTY_FUNCTION__._ZNK6open3d4core3nns21NearestNeighborSearch13AssertNotCUDAERKNS0_6TensorE, ptr noundef @.str.7) #22
  unreachable

8:                                                ; preds = %2
  ret void
}

; Function Attrs: mustprogress ssp uwtable
define void @_ZN6open3d4core3nns21NearestNeighborSearch17MultiRadiusSearchERKNS0_6TensorES5_(ptr dead_on_unwind noalias writable sret(%"class.std::tuple.38") align 8 %0, ptr noundef nonnull align 8 dereferenceable(216) %1, ptr noundef nonnull align 8 dereferenceable(160) %2, ptr noundef nonnull align 8 dereferenceable(160) %3) #8 align 2 {
  %5 = alloca ptr, align 8
  %6 = alloca ptr, align 8
  %7 = alloca ptr, align 8
  %8 = alloca ptr, align 8
  %9 = alloca %"class.open3d::core::Dtype", align 8
  %10 = alloca %"class.open3d::core::Dtype", align 8
  store ptr %0, ptr %5, align 8
  store ptr %1, ptr %6, align 8, !tbaa !4
  store ptr %2, ptr %7, align 8, !tbaa !9
  store ptr %3, ptr %8, align 8, !tbaa !9
  %11 = load ptr, ptr %6, align 8
  %12 = load ptr, ptr %7, align 8, !tbaa !9
  call void @_ZNK6open3d4core3nns21NearestNeighborSearch13AssertNotCUDAERKNS0_6TensorE(ptr noundef nonnull align 8 dereferenceable(216) %11, ptr noundef nonnull align 8 dereferenceable(160) %12)
  %13 = load ptr, ptr %7, align 8, !tbaa !9
  call void @llvm.lifetime.start.p0(i64 32, ptr %9) #18
  %14 = getelementptr inbounds nuw %"class.open3d::core::nns::NearestNeighborSearch", ptr %11, i32 0, i32 3
  call void @_ZNK6open3d4core6Tensor8GetDtypeEv(ptr dead_on_unwind writable sret(%"class.open3d::core::Dtype") align 8 %9, ptr noundef nonnull align 8 dereferenceable(160) %14)
  call void @_ZN6open3d4core12tensor_check18AssertTensorDtype_EPKciS3_RKNS0_6TensorERKNS0_5DtypeE(ptr noundef @.str, i32 noundef 121, ptr noundef @__PRETTY_FUNCTION__._ZN6open3d4core3nns21NearestNeighborSearch17MultiRadiusSearchERKNS0_6TensorES5_, ptr noundef nonnull align 8 dereferenceable(160) %13, ptr noundef nonnull align 8 dereferenceable(32) %9)
  call void @llvm.lifetime.end.p0(i64 32, ptr %9) #18
  %15 = load ptr, ptr %8, align 8, !tbaa !9
  call void @llvm.lifetime.start.p0(i64 32, ptr %10) #18
  %16 = getelementptr inbounds nuw %"class.open3d::core::nns::NearestNeighborSearch", ptr %11, i32 0, i32 3
  call void @_ZNK6open3d4core6Tensor8GetDtypeEv(ptr dead_on_unwind writable sret(%"class.open3d::core::Dtype") align 8 %10, ptr noundef nonnull align 8 dereferenceable(160) %16)
  call void @_ZN6open3d4core12tensor_check18AssertTensorDtype_EPKciS3_RKNS0_6TensorERKNS0_5DtypeE(ptr noundef @.str, i32 noundef 122, ptr noundef @__PRETTY_FUNCTION__._ZN6open3d4core3nns21NearestNeighborSearch17MultiRadiusSearchERKNS0_6TensorES5_, ptr noundef nonnull align 8 dereferenceable(160) %15, ptr noundef nonnull align 8 dereferenceable(32) %10)
  call void @llvm.lifetime.end.p0(i64 32, ptr %10) #18
  %17 = getelementptr inbounds nuw %"class.open3d::core::nns::NearestNeighborSearch", ptr %11, i32 0, i32 0
  %18 = call noundef zeroext i1 @_ZNKSt10unique_ptrIN6open3d4core3nns14NanoFlannIndexESt14default_deleteIS3_EEcvbEv(ptr noundef nonnull align 8 dereferenceable(8) %17) #18
  br i1 %18, label %20, label %19

19:                                               ; preds = %4
  call void @_ZN6open3d7utility6Logger9LogError_IJEEEvPKciS4_S4_DpOT_(ptr noundef @.str, i32 noundef 125, ptr noundef @__PRETTY_FUNCTION__._ZN6open3d4core3nns21NearestNeighborSearch17MultiRadiusSearchERKNS0_6TensorES5_, ptr noundef @.str.6) #22
  unreachable

20:                                               ; preds = %4
  %21 = getelementptr inbounds nuw %"class.open3d::core::nns::NearestNeighborSearch", ptr %11, i32 0, i32 0
  %22 = call noundef ptr @_ZNKSt10unique_ptrIN6open3d4core3nns14NanoFlannIndexESt14default_deleteIS3_EEptEv(ptr noundef nonnull align 8 dereferenceable(8) %21) #18
  %23 = load ptr, ptr %7, align 8, !tbaa !9
  %24 = load ptr, ptr %8, align 8, !tbaa !9
  %25 = load ptr, ptr %22, align 8, !tbaa !11
  %26 = getelementptr inbounds ptr, ptr %25, i64 5
  %27 = load ptr, ptr %26, align 8
  call void %27(ptr dead_on_unwind writable sret(%"class.std::tuple.38") align 8 %0, ptr noundef nonnull align 8 dereferenceable(208) %22, ptr noundef nonnull align 8 dereferenceable(160) %23, ptr noundef nonnull align 8 dereferenceable(160) %24, i1 noundef zeroext true)
  ret void
}