; Function Attrs: mustprogress ssp uwtable
define void @_ZN6open3d4core3nns21NearestNeighborSearch17MultiRadiusSearchERKNS0_6TensorES5_(ptr dead_on_unwind noalias writable sret(%"class.std::tuple.38") align 8 %0, ptr noundef nonnull readonly align 8 captures(none) dereferenceable(216) %1, ptr noundef nonnull align 8 dereferenceable(160) %2, ptr noundef nonnull align 8 dereferenceable(160) %3) local_unnamed_addr #4 align 2 {
  %5 = alloca %"class.open3d::core::Dtype", align 8
  %6 = alloca %"class.open3d::core::Dtype", align 8
  %7 = load ptr, ptr %2, align 8, !tbaa !4
  %8 = getelementptr inbounds nuw i8, ptr %7, i64 16
  %9 = load ptr, ptr %8, align 8
  %10 = tail call i64 %9(ptr noundef nonnull align 8 dereferenceable(160) %2)
  %11 = and i64 %10, 4294967295
  %12 = icmp eq i64 %11, 1
  br i1 %12, label %13, label %_ZNK6open3d4core3nns21NearestNeighborSearch13AssertNotCUDAERKNS0_6TensorE.exit

13:                                               ; preds = %4
  tail call void @_ZN6open3d7utility6Logger9LogError_IJEEEvPKciS4_S4_DpOT_(ptr noundef nonnull @.str, i32 noundef 157, ptr noundef nonnull @__PRETTY_FUNCTION__._ZNK6open3d4core3nns21NearestNeighborSearch13AssertNotCUDAERKNS0_6TensorE, ptr noundef nonnull @.str.7) #17
  unreachable

_ZNK6open3d4core3nns21NearestNeighborSearch13AssertNotCUDAERKNS0_6TensorE.exit: ; preds = %4
  call void @llvm.lifetime.start.p0(i64 32, ptr nonnull %5) #14
  %14 = getelementptr inbounds nuw i8, ptr %1, i64 136
  call void @llvm.memcpy.p0.p0.i64(ptr noundef nonnull align 8 dereferenceable(32) %5, ptr noundef nonnull align 8 dereferenceable(32) %14, i64 32, i1 false), !tbaa.struct !40
  call void @_ZN6open3d4core12tensor_check18AssertTensorDtype_EPKciS3_RKNS0_6TensorERKNS0_5DtypeE(ptr noundef nonnull @.str, i32 noundef 121, ptr noundef nonnull @__PRETTY_FUNCTION__._ZN6open3d4core3nns21NearestNeighborSearch17MultiRadiusSearchERKNS0_6TensorES5_, ptr noundef nonnull align 8 dereferenceable(160) %2, ptr noundef nonnull align 8 dereferenceable(32) %5)
  call void @llvm.lifetime.end.p0(i64 32, ptr nonnull %5) #14
  call void @llvm.lifetime.start.p0(i64 32, ptr nonnull %6) #14
  call void @llvm.memcpy.p0.p0.i64(ptr noundef nonnull align 8 dereferenceable(32) %6, ptr noundef nonnull align 8 dereferenceable(32) %14, i64 32, i1 false), !tbaa.struct !40
  call void @_ZN6open3d4core12tensor_check18AssertTensorDtype_EPKciS3_RKNS0_6TensorERKNS0_5DtypeE(ptr noundef nonnull @.str, i32 noundef 122, ptr noundef nonnull @__PRETTY_FUNCTION__._ZN6open3d4core3nns21NearestNeighborSearch17MultiRadiusSearchERKNS0_6TensorES5_, ptr noundef nonnull align 8 dereferenceable(160) %3, ptr noundef nonnull align 8 dereferenceable(32) %6)
  call void @llvm.lifetime.end.p0(i64 32, ptr nonnull %6) #14
  %15 = load ptr, ptr %1, align 8, !tbaa !25
  %.not = icmp eq ptr %15, null
  br i1 %.not, label %16, label %17

16:                                               ; preds = %_ZNK6open3d4core3nns21NearestNeighborSearch13AssertNotCUDAERKNS0_6TensorE.exit
  call void @_ZN6open3d7utility6Logger9LogError_IJEEEvPKciS4_S4_DpOT_(ptr noundef nonnull @.str, i32 noundef 125, ptr noundef nonnull @__PRETTY_FUNCTION__._ZN6open3d4core3nns21NearestNeighborSearch17MultiRadiusSearchERKNS0_6TensorES5_, ptr noundef nonnull @.str.6) #17
  unreachable

17:                                               ; preds = %_ZNK6open3d4core3nns21NearestNeighborSearch13AssertNotCUDAERKNS0_6TensorE.exit
  %18 = load ptr, ptr %15, align 8, !tbaa !4
  %19 = getelementptr inbounds nuw i8, ptr %18, i64 40
  %20 = load ptr, ptr %19, align 8
  call void %20(ptr dead_on_unwind writable sret(%"class.std::tuple.38") align 8 %0, ptr noundef nonnull align 8 dereferenceable(208) %15, ptr noundef nonnull align 8 dereferenceable(160) %2, ptr noundef nonnull align 8 dereferenceable(160) %3, i1 noundef zeroext true)
  ret void
}